; ModuleID = '14/1205.c'
source_filename = "14/1205.c"
target datalayout = "e-m:e-p270:32:32-p271:32:32-p272:64:64-i64:64-f80:128-n8:16:32:64-S128"
target triple = "x86_64-pc-linux-gnu"

%struct.student = type { i32, i32, i32, i32, %struct.student* }

@.str = private unnamed_addr constant [3 x i8] c"%d\00", align 1
@.str.1 = private unnamed_addr constant [7 x i8] c"%d%d%d\00", align 1
@.str.2 = private unnamed_addr constant [7 x i8] c"%d %d\0A\00", align 1

; Function Attrs: noinline nounwind uwtable
define dso_local void @main(%struct.student* noalias sret %0) #0 {
  %2 = alloca %struct.student*, align 8
  %3 = alloca %struct.student*, align 8
  %4 = alloca %struct.student*, align 8
  %5 = alloca %struct.student*, align 8
  %6 = alloca i64, align 8
  %7 = alloca i64, align 8
  %8 = alloca i32, align 4
  %9 = alloca i32, align 4
  %10 = call i32 (i8*, ...) @__isoc99_scanf(i8* getelementptr inbounds ([3 x i8], [3 x i8]* @.str, i64 0, i64 0), i64* %6)
  %11 = call noalias i8* @malloc(i64 100) #3
  %12 = bitcast i8* %11 to %struct.student*
  store %struct.student* %12, %struct.student** %4, align 8
  store %struct.student* %12, %struct.student** %3, align 8
  %13 = load %struct.student*, %struct.student** %3, align 8
  %14 = getelementptr inbounds %struct.student, %struct.student* %13, i32 0, i32 0
  %15 = load %struct.student*, %struct.student** %3, align 8
  %16 = getelementptr inbounds %struct.student, %struct.student* %15, i32 0, i32 1
  %17 = load %struct.student*, %struct.student** %3, align 8
  %18 = getelementptr inbounds %struct.student, %struct.student* %17, i32 0, i32 2
  %19 = call i32 (i8*, ...) @__isoc99_scanf(i8* getelementptr inbounds ([7 x i8], [7 x i8]* @.str.1, i64 0, i64 0), i32* %14, i32* %16, i32* %18)
  %20 = load %struct.student*, %struct.student** %3, align 8
  %21 = getelementptr inbounds %struct.student, %struct.student* %20, i32 0, i32 1
  %22 = load i32, i32* %21, align 4
  %23 = load %struct.student*, %struct.student** %3, align 8
  %24 = getelementptr inbounds %struct.student, %struct.student* %23, i32 0, i32 2
  %25 = load i32, i32* %24, align 8
  %26 = add nsw i32 %22, %25
  %27 = load %struct.student*, %struct.student** %3, align 8
  %28 = getelementptr inbounds %struct.student, %struct.student* %27, i32 0, i32 3
  store i32 %26, i32* %28, align 4
  %29 = load %struct.student*, %struct.student** %3, align 8
  store %struct.student* %29, %struct.student** %2, align 8
  store i64 1, i64* %7, align 8
  br label %30

30:                                               ; preds = %61, %1
  %31 = load i64, i64* %7, align 8
  %32 = load i64, i64* %6, align 8
  %33 = icmp slt i64 %31, %32
  br i1 %33, label %34, label %64

34:                                               ; preds = %30
  %35 = load i64, i64* %7, align 8
  %36 = icmp sgt i64 %35, 1
  br i1 %36, label %37, label %41

37:                                               ; preds = %34
  %38 = load %struct.student*, %struct.student** %3, align 8
  %39 = load %struct.student*, %struct.student** %4, align 8
  %40 = getelementptr inbounds %struct.student, %struct.student* %39, i32 0, i32 4
  store %struct.student* %38, %struct.student** %40, align 8
  br label %41

41:                                               ; preds = %37, %34
  %42 = load %struct.student*, %struct.student** %3, align 8
  store %struct.student* %42, %struct.student** %4, align 8
  %43 = call noalias i8* @malloc(i64 100) #3
  %44 = bitcast i8* %43 to %struct.student*
  store %struct.student* %44, %struct.student** %3, align 8
  %45 = load %struct.student*, %struct.student** %3, align 8
  %46 = getelementptr inbounds %struct.student, %struct.student* %45, i32 0, i32 0
  %47 = load %struct.student*, %struct.student** %3, align 8
  %48 = getelementptr inbounds %struct.student, %struct.student* %47, i32 0, i32 1
  %49 = load %struct.student*, %struct.student** %3, align 8
  %50 = getelementptr inbounds %struct.student, %struct.student* %49, i32 0, i32 2
  %51 = call i32 (i8*, ...) @__isoc99_scanf(i8* getelementptr inbounds ([7 x i8], [7 x i8]* @.str.1, i64 0, i64 0), i32* %46, i32* %48, i32* %50)
  %52 = load %struct.student*, %struct.student** %3, align 8
  %53 = getelementptr inbounds %struct.student, %struct.student* %52, i32 0, i32 1
  %54 = load i32, i32* %53, align 4
  %55 = load %struct.student*, %struct.student** %3, align 8
  %56 = getelementptr inbounds %struct.student, %struct.student* %55, i32 0, i32 2
  %57 = load i32, i32* %56, align 8
  %58 = add nsw i32 %54, %57
  %59 = load %struct.student*, %struct.student** %3, align 8
  %60 = getelementptr inbounds %struct.student, %struct.student* %59, i32 0, i32 3
  store i32 %58, i32* %60, align 4
  br label %61

61:                                               ; preds = %41
  %62 = load i64, i64* %7, align 8
  %63 = add nsw i64 %62, 1
  store i64 %63, i64* %7, align 8
  br label %30

64:                                               ; preds = %30
  %65 = load %struct.student*, %struct.student** %4, align 8
  %66 = getelementptr inbounds %struct.student, %struct.student* %65, i32 0, i32 4
  store %struct.student* null, %struct.student** %66, align 8
  store i32 0, i32* %8, align 4
  br label %67

67:                                               ; preds = %126, %64
  %68 = load i32, i32* %8, align 4
  %69 = icmp slt i32 %68, 3
  br i1 %69, label %70, label %129

70:                                               ; preds = %67
  %71 = load %struct.student*, %struct.student** %2, align 8
  store %struct.student* %71, %struct.student** %3, align 8
  store %struct.student* %71, %struct.student** %5, align 8
  %72 = load %struct.student*, %struct.student** %5, align 8
  %73 = getelementptr inbounds %struct.student, %struct.student* %72, i32 0, i32 3
  %74 = load i32, i32* %73, align 4
  store i32 %74, i32* %9, align 4
  br label %75

75:                                               ; preds = %95, %70
  %76 = load %struct.student*, %struct.student** %5, align 8
  %77 = getelementptr inbounds %struct.student, %struct.student* %76, i32 0, i32 4
  %78 = load %struct.student*, %struct.student** %77, align 8
  %79 = icmp ne %struct.student* %78, null
  br i1 %79, label %80, label %96

80:                                               ; preds = %75
  %81 = load %struct.student*, %struct.student** %5, align 8
  store %struct.student* %81, %struct.student** %4, align 8
  %82 = load %struct.student*, %struct.student** %5, align 8
  %83 = getelementptr inbounds %struct.student, %struct.student* %82, i32 0, i32 4
  %84 = load %struct.student*, %struct.student** %83, align 8
  store %struct.student* %84, %struct.student** %5, align 8
  %85 = load %struct.student*, %struct.student** %5, align 8
  %86 = getelementptr inbounds %struct.student, %struct.student* %85, i32 0, i32 3
  %87 = load i32, i32* %86, align 4
  %88 = load i32, i32* %9, align 4
  %89 = icmp sgt i32 %87, %88
  br i1 %89, label %90, label %95

90:                                               ; preds = %80
  %91 = load %struct.student*, %struct.student** %5, align 8
  %92 = getelementptr inbounds %struct.student, %struct.student* %91, i32 0, i32 3
  %93 = load i32, i32* %92, align 4
  store i32 %93, i32* %9, align 4
  %94 = load %struct.student*, %struct.student** %4, align 8
  store %struct.student* %94, %struct.student** %3, align 8
  br label %95

95:                                               ; preds = %90, %80
  br label %75

96:                                               ; preds = %75
  %97 = load %struct.student*, %struct.student** %3, align 8
  %98 = getelementptr inbounds %struct.student, %struct.student* %97, i32 0, i32 4
  %99 = load %struct.student*, %struct.student** %98, align 8
  %100 = getelementptr inbounds %struct.student, %struct.student* %99, i32 0, i32 0
  %101 = load i32, i32* %100, align 8
  %102 = load %struct.student*, %struct.student** %3, align 8
  %103 = getelementptr inbounds %struct.student, %struct.student* %102, i32 0, i32 4
  %104 = load %struct.student*, %struct.student** %103, align 8
  %105 = getelementptr inbounds %struct.student, %struct.student* %104, i32 0, i32 3
  %106 = load i32, i32* %105, align 4
  %107 = call i32 (i8*, ...) @printf(i8* getelementptr inbounds ([7 x i8], [7 x i8]* @.str.2, i64 0, i64 0), i32 %101, i32 %106)
  %108 = load i32, i32* %9, align 4
  %109 = load %struct.student*, %struct.student** %2, align 8
  %110 = getelementptr inbounds %struct.student, %struct.student* %109, i32 0, i32 3
  %111 = load i32, i32* %110, align 4
  %112 = icmp eq i32 %108, %111
  br i1 %112, label %113, label %117

113:                                              ; preds = %96
  %114 = load %struct.student*, %struct.student** %2, align 8
  %115 = getelementptr inbounds %struct.student, %struct.student* %114, i32 0, i32 4
  %116 = load %struct.student*, %struct.student** %115, align 8
  store %struct.student* %116, %struct.student** %2, align 8
  br label %125

117:                                              ; preds = %96
  %118 = load %struct.student*, %struct.student** %3, align 8
  %119 = getelementptr inbounds %struct.student, %struct.student* %118, i32 0, i32 4
  %120 = load %struct.student*, %struct.student** %119, align 8
  %121 = getelementptr inbounds %struct.student, %struct.student* %120, i32 0, i32 4
  %122 = load %struct.student*, %struct.student** %121, align 8
  %123 = load %struct.student*, %struct.student** %3, align 8
  %124 = getelementptr inbounds %struct.student, %struct.student* %123, i32 0, i32 4
  store %struct.student* %122, %struct.student** %124, align 8
  br label %125

125:                                              ; preds = %117, %113
  br label %126

126:                                              ; preds = %125
  %127 = load i32, i32* %8, align 4
  %128 = add nsw i32 %127, 1
  store i32 %128, i32* %8, align 4
  br label %67

129:                                              ; preds = %67
  ret void
}

declare dso_local i32 @__isoc99_scanf(i8*, ...) #1

; Function Attrs: nounwind
declare dso_local noalias i8* @malloc(i64) #2

declare dso_local i32 @printf(i8*, ...) #1


!llvm.module.flags = !{!0}
!llvm.ident = !{!1}

!0 = !{i32 1, !"wchar_size", i32 4}
!1 = !{!"clang version 10.0.0-4ubuntu1 "}
